target datalayout = "e-m:e-p270:32:32-p271:32:32-p272:64:64-i64:64-i128:128-f80:128-n8:16:32:64-S128"
target triple = "x86_64-pc-linux-gnu"

%struct.lzma_stream = type { ptr, i64, i64, ptr, i64, i64, ptr, ptr, ptr, ptr, ptr, ptr, i64, i64, i64, i64, i32, i32 }
%struct.archive_write_filter = type { i64, ptr, ptr, ptr, ptr, ptr, ptr, ptr, ptr, ptr, ptr, i32, i32, i32, i32 }
%struct.private_data = type { i32, i32, %struct.lzma_stream, [2 x %struct.lzma_filter], %struct.lzma_options_lzma, i64, ptr, i64, i64, i32 }
%struct.lzma_filter = type { i64, ptr }
%struct.lzma_options_lzma = type { i32, ptr, i32, i32, i32, i32, i32, i32, i32, i32, i32, i32, i32, i32, i32, i32, i32, i32, i32, i32, i32, i32, ptr, ptr }

@.str.15 = private unnamed_addr constant [18 x i8] c"compression-level\00", align 1
@.str.16 = private unnamed_addr constant [8 x i8] c"threads\00", align 1

; Function Attrs: nounwind uwtable
define internal i32 @archive_compressor_xz_options(ptr noundef %0, ptr noundef %1, ptr noundef %2) #0 {
  %4 = alloca i32, align 4
  %5 = alloca ptr, align 8
  %6 = alloca ptr, align 8
  %7 = alloca ptr, align 8
  %8 = alloca ptr, align 8
  %9 = alloca i32, align 4
  %10 = alloca ptr, align 8
  store ptr %0, ptr %5, align 8, !tbaa !11
  store ptr %1, ptr %6, align 8, !tbaa !67
  store ptr %2, ptr %7, align 8, !tbaa !67
  call void @llvm.lifetime.start.p0(i64 8, ptr %8) #11
  %11 = load ptr, ptr %5, align 8, !tbaa !11
  %12 = getelementptr inbounds nuw %struct.archive_write_filter, ptr %11, i32 0, i32 9
  %13 = load ptr, ptr %12, align 8, !tbaa !23
  store ptr %13, ptr %8, align 8, !tbaa !21
  %14 = load ptr, ptr %6, align 8, !tbaa !67
  %15 = call i32 @strcmp(ptr noundef %14, ptr noundef @.str.15) #14
  %16 = icmp eq i32 %15, 0
  br i1 %16, label %17, label %55

17:                                               ; preds = %3
  %18 = load ptr, ptr %7, align 8, !tbaa !67
  %19 = icmp eq ptr %18, null
  br i1 %19, label %38, label %20

20:                                               ; preds = %17
  %21 = load ptr, ptr %7, align 8, !tbaa !67
  %22 = getelementptr inbounds i8, ptr %21, i64 0
  %23 = load i8, ptr %22, align 1, !tbaa !68
  %24 = sext i8 %23 to i32
  %25 = icmp sge i32 %24, 48
  br i1 %25, label %26, label %38

26:                                               ; preds = %20
  %27 = load ptr, ptr %7, align 8, !tbaa !67
  %28 = getelementptr inbounds i8, ptr %27, i64 0
  %29 = load i8, ptr %28, align 1, !tbaa !68
  %30 = sext i8 %29 to i32
  %31 = icmp sle i32 %30, 57
  br i1 %31, label %32, label %38

32:                                               ; preds = %26
  %33 = load ptr, ptr %7, align 8, !tbaa !67
  %34 = getelementptr inbounds i8, ptr %33, i64 1
  %35 = load i8, ptr %34, align 1, !tbaa !68
  %36 = sext i8 %35 to i32
  %37 = icmp ne i32 %36, 0
  br i1 %37, label %38, label %39

38:                                               ; preds = %32, %26, %20, %17
  store i32 -20, ptr %4, align 4
  store i32 1, ptr %9, align 4
  br label %94

39:                                               ; preds = %32
  %40 = load ptr, ptr %7, align 8, !tbaa !67
  %41 = getelementptr inbounds i8, ptr %40, i64 0
  %42 = load i8, ptr %41, align 1, !tbaa !68
  %43 = sext i8 %42 to i32
  %44 = sub nsw i32 %43, 48
  %45 = load ptr, ptr %8, align 8, !tbaa !21
  %46 = getelementptr inbounds nuw %struct.private_data, ptr %45, i32 0, i32 0
  store i32 %44, ptr %46, align 8, !tbaa !24
  %47 = load ptr, ptr %8, align 8, !tbaa !21
  %48 = getelementptr inbounds nuw %struct.private_data, ptr %47, i32 0, i32 0
  %49 = load i32, ptr %48, align 8, !tbaa !24
  %50 = icmp sgt i32 %49, 9
  br i1 %50, label %51, label %54

51:                                               ; preds = %39
  %52 = load ptr, ptr %8, align 8, !tbaa !21
  %53 = getelementptr inbounds nuw %struct.private_data, ptr %52, i32 0, i32 0
  store i32 9, ptr %53, align 8, !tbaa !24
  br label %54

54:                                               ; preds = %51, %39
  store i32 0, ptr %4, align 4
  store i32 1, ptr %9, align 4
  br label %94

55:                                               ; preds = %3
  %56 = load ptr, ptr %6, align 8, !tbaa !67
  %57 = call i32 @strcmp(ptr noundef %56, ptr noundef @.str.16) #14
  %58 = icmp eq i32 %57, 0
  br i1 %58, label %59, label %92

59:                                               ; preds = %55
  call void @llvm.lifetime.start.p0(i64 8, ptr %10) #11
  %60 = load ptr, ptr %7, align 8, !tbaa !67
  %61 = icmp eq ptr %60, null
  br i1 %61, label %62, label %63

62:                                               ; preds = %59
  store i32 -20, ptr %4, align 4
  store i32 1, ptr %9, align 4
  br label %91

63:                                               ; preds = %59
  %64 = call ptr @__errno_location() #15
  store i32 0, ptr %64, align 4, !tbaa !9
  %65 = load ptr, ptr %7, align 8, !tbaa !67
  %66 = call i64 @strtoul(ptr noundef %65, ptr noundef %10, i32 noundef 10) #11
  %67 = trunc i64 %66 to i32
  %68 = load ptr, ptr %8, align 8, !tbaa !21
  %69 = getelementptr inbounds nuw %struct.private_data, ptr %68, i32 0, i32 1
  store i32 %67, ptr %69, align 4, !tbaa !29
  %70 = call ptr @__errno_location() #15
  %71 = load i32, ptr %70, align 4, !tbaa !9
  %72 = icmp ne i32 %71, 0
  br i1 %72, label %78, label %73

73:                                               ; preds = %63
  %74 = load ptr, ptr %10, align 8, !tbaa !67
  %75 = load i8, ptr %74, align 1, !tbaa !68
  %76 = sext i8 %75 to i32
  %77 = icmp ne i32 %76, 0
  br i1 %77, label %78, label %81

78:                                               ; preds = %73, %63
  %79 = load ptr, ptr %8, align 8, !tbaa !21
  %80 = getelementptr inbounds nuw %struct.private_data, ptr %79, i32 0, i32 1
  store i32 1, ptr %80, align 4, !tbaa !29
  store i32 -20, ptr %4, align 4
  store i32 1, ptr %9, align 4
  br label %91

81:                                               ; preds = %73
  %82 = load ptr, ptr %8, align 8, !tbaa !21
  %83 = getelementptr inbounds nuw %struct.private_data, ptr %82, i32 0, i32 1
  %84 = load i32, ptr %83, align 4, !tbaa !29
  %85 = icmp eq i32 %84, 0
  br i1 %85, label %86, label %90

86:                                               ; preds = %81
  %87 = call i32 @lzma_cputhreads() #11
  %88 = load ptr, ptr %8, align 8, !tbaa !21
  %89 = getelementptr inbounds nuw %struct.private_data, ptr %88, i32 0, i32 1
  store i32 %87, ptr %89, align 4, !tbaa !29
  br label %90

90:                                               ; preds = %86, %81
  store i32 0, ptr %4, align 4
  store i32 1, ptr %9, align 4
  br label %91

91:                                               ; preds = %90, %78, %62
  call void @llvm.lifetime.end.p0(i64 8, ptr %10) #11
  br label %94

92:                                               ; preds = %55
  br label %93

93:                                               ; preds = %92
  store i32 -20, ptr %4, align 4
  store i32 1, ptr %9, align 4
  br label %94

94:                                               ; preds = %93, %91, %54, %38
  call void @llvm.lifetime.end.p0(i64 8, ptr %8) #11
  %95 = load i32, ptr %4, align 4
  ret i32 %95
}