; Function Attrs: nounwind uwtable
define internal range(i32 -20, 1) i32 @archive_compressor_xz_options(ptr noundef readonly captures(none) %0, ptr noundef readonly captures(none) %1, ptr noundef %2) #0 {
  %4 = alloca ptr, align 8
  %5 = getelementptr inbounds nuw i8, ptr %0, i64 72
  %6 = load ptr, ptr %5, align 8, !tbaa !14
  %7 = tail call i32 @strcmp(ptr noundef nonnull dereferenceable(1) %1, ptr noundef nonnull dereferenceable(18) @.str.15) #16
  %8 = icmp eq i32 %7, 0
  br i1 %8, label %9, label %19

9:                                                ; preds = %3
  %10 = icmp eq ptr %2, null
  br i1 %10, label %38, label %11

11:                                               ; preds = %9
  %12 = load i8, ptr %2, align 1, !tbaa !62
  %13 = add i8 %12, -48
  %or.cond = icmp ult i8 %13, 10
  br i1 %or.cond, label %14, label %38

14:                                               ; preds = %11
  %15 = getelementptr inbounds nuw i8, ptr %2, i64 1
  %16 = load i8, ptr %15, align 1, !tbaa !62
  %.not21 = icmp eq i8 %16, 0
  br i1 %.not21, label %17, label %38

17:                                               ; preds = %14
  %18 = zext nneg i8 %13 to i32
  store i32 %18, ptr %6, align 8, !tbaa !15
  br label %38

19:                                               ; preds = %3
  %20 = tail call i32 @strcmp(ptr noundef nonnull dereferenceable(1) %1, ptr noundef nonnull dereferenceable(8) @.str.16) #16
  %21 = icmp eq i32 %20, 0
  br i1 %21, label %22, label %38

22:                                               ; preds = %19
  call void @llvm.lifetime.start.p0(i64 8, ptr nonnull %4) #13
  %23 = icmp eq ptr %2, null
  br i1 %23, label %37, label %24

24:                                               ; preds = %22
  %25 = tail call ptr @__errno_location() #17
  store i32 0, ptr %25, align 4, !tbaa !66
  %26 = call i64 @strtoul(ptr noundef nonnull %2, ptr noundef nonnull %4, i32 noundef 10) #13
  %27 = trunc i64 %26 to i32
  %28 = getelementptr inbounds nuw i8, ptr %6, i64 4
  store i32 %27, ptr %28, align 4, !tbaa !20
  %29 = load i32, ptr %25, align 4, !tbaa !66
  %.not = icmp eq i32 %29, 0
  br i1 %.not, label %30, label %.sink.split

30:                                               ; preds = %24
  %31 = load ptr, ptr %4, align 8, !tbaa !67
  %32 = load i8, ptr %31, align 1, !tbaa !62
  %.not20 = icmp eq i8 %32, 0
  br i1 %.not20, label %33, label %.sink.split

33:                                               ; preds = %30
  %34 = icmp eq i32 %27, 0
  br i1 %34, label %35, label %37

35:                                               ; preds = %33
  %36 = tail call i32 @lzma_cputhreads() #13
  br label %.sink.split

.sink.split:                                      ; preds = %24, %30, %35
  %.sink = phi i32 [ %36, %35 ], [ 1, %30 ], [ 1, %24 ]
  %.1.ph = phi i32 [ 0, %35 ], [ -20, %30 ], [ -20, %24 ]
  store i32 %.sink, ptr %28, align 4, !tbaa !20
  br label %37

37:                                               ; preds = %.sink.split, %33, %22
  %.1 = phi i32 [ -20, %22 ], [ 0, %33 ], [ %.1.ph, %.sink.split ]
  call void @llvm.lifetime.end.p0(i64 8, ptr nonnull %4) #13
  br label %38

38:                                               ; preds = %19, %9, %11, %14, %37, %17
  %.0 = phi i32 [ 0, %17 ], [ %.1, %37 ], [ -20, %14 ], [ -20, %11 ], [ -20, %9 ], [ -20, %19 ]
  ret i32 %.0
}